; Function Attrs: nounwind uwtable
define dso_local zeroext i1 @op_strict(i32 noundef %0) local_unnamed_addr #0 {
  %2 = zext i32 %0 to i64
  %3 = tail call ptr @SearchSysCache1(i32 noundef 40, i64 noundef %2) #8
  %.not.i = icmp eq ptr %3, null
  br i1 %.not.i, label %get_opcode.exit.thread, label %get_opcode.exit

get_opcode.exit:                                  ; preds = %1
  %4 = getelementptr i8, ptr %3, i64 16
  %.val.i = load ptr, ptr %4, align 8
  %5 = getelementptr inbounds nuw i8, ptr %.val.i, i64 22
  %6 = load i8, ptr %5, align 2
  %7 = zext i8 %6 to i64
  %8 = getelementptr inbounds nuw i8, ptr %.val.i, i64 %7
  %9 = getelementptr inbounds nuw i8, ptr %8, i64 100
  %10 = load i32, ptr %9, align 4
  tail call void @ReleaseSysCache(ptr noundef nonnull %3) #8
  %11 = icmp eq i32 %10, 0
  br i1 %11, label %get_opcode.exit.thread, label %14

get_opcode.exit.thread:                           ; preds = %1, %get_opcode.exit
  %12 = tail call zeroext i1 @errstart_cold(i32 noundef 21, ptr noundef null) #9
  tail call void @llvm.assume(i1 %12)
  %13 = tail call i32 (ptr, ...) @errmsg_internal(ptr noundef nonnull @.str.10, i32 noundef %0) #8
  tail call void @errfinish(ptr noundef nonnull @.str.1, i32 noundef 1509, ptr noundef nonnull @__func__.op_strict) #8
  unreachable

14:                                               ; preds = %get_opcode.exit
  %15 = zext i32 %10 to i64
  %16 = tail call ptr @SearchSysCache1(i32 noundef 47, i64 noundef %15) #8
  %.not.i4 = icmp eq ptr %16, null
  br i1 %.not.i4, label %17, label %func_strict.exit

17:                                               ; preds = %14
  %18 = tail call zeroext i1 @errstart_cold(i32 noundef 21, ptr noundef null) #9
  tail call void @llvm.assume(i1 %18)
  %19 = tail call i32 (ptr, ...) @errmsg_internal(ptr noundef nonnull @.str.11, i32 noundef %10) #8
  tail call void @errfinish(ptr noundef nonnull @.str.1, i32 noundef 1795, ptr noundef nonnull @__func__.func_strict) #8
  unreachable

func_strict.exit:                                 ; preds = %14
  %20 = getelementptr i8, ptr %16, i64 16
  %.val.i5 = load ptr, ptr %20, align 8
  %21 = getelementptr inbounds nuw i8, ptr %.val.i5, i64 22
  %22 = load i8, ptr %21, align 2
  %23 = zext i8 %22 to i64
  %24 = getelementptr inbounds nuw i8, ptr %.val.i5, i64 %23
  %25 = getelementptr inbounds nuw i8, ptr %24, i64 99
  %26 = load i8, ptr %25, align 1, !range !14, !noundef !15
  %27 = trunc nuw i8 %26 to i1
  tail call void @ReleaseSysCache(ptr noundef nonnull %16) #8
  ret i1 %27
}